; Function Attrs: mustprogress uwtable
define void @_ZN9grpc_core18ChildPolicyHandler14ExitIdleLockedEv(ptr nocapture noundef nonnull readonly align 8 dereferenceable(96) %this) unnamed_addr #3 align 2 {
entry:
  %child_policy_ = getelementptr inbounds i8, ptr %this, i64 80
  %0 = load ptr, ptr %child_policy_, align 8
  %cmp.i.i.not = icmp eq ptr %0, null
  br i1 %cmp.i.i.not, label %if.end10, label %if.then

if.then:                                          ; preds = %entry
  %vtable = load ptr, ptr %0, align 8
  %vfn = getelementptr inbounds i8, ptr %vtable, i64 40
  %1 = load ptr, ptr %vfn, align 8
  tail call void %1(ptr noundef nonnull align 8 dereferenceable(56) %0)
  %pending_child_policy_ = getelementptr inbounds i8, ptr %this, i64 88
  %2 = load ptr, ptr %pending_child_policy_, align 8
  %cmp.i.i1.not = icmp eq ptr %2, null
  br i1 %cmp.i.i1.not, label %if.end10, label %if.then5

if.then5:                                         ; preds = %if.then
  %vtable8 = load ptr, ptr %2, align 8
  %vfn9 = getelementptr inbounds i8, ptr %vtable8, i64 40
  %3 = load ptr, ptr %vfn9, align 8
  tail call void %3(ptr noundef nonnull align 8 dereferenceable(56) %2)
  br label %if.end10

if.end10:                                         ; preds = %if.then, %if.then5, %entry
  ret void
}